target datalayout = "e-m:e-p270:32:32-p271:32:32-p272:64:64-i64:64-i128:128-f80:128-n8:16:32:64-S128"
target triple = "x86_64-pc-linux-gnu"

%struct.buf_t = type { i32, ptr, i32, i32, i8, i8 }
%union.anon.2 = type { double }

; Function Attrs: nounwind uwtable
define dso_local i32 @unpackdouble(ptr noundef %0, ptr noundef %1) #0 {
  %3 = alloca i32, align 4
  %4 = alloca ptr, align 8
  %5 = alloca ptr, align 8
  %6 = alloca i64, align 8
  %7 = alloca %union.anon.2, align 8
  %8 = alloca i32, align 4
  store ptr %0, ptr %4, align 8
  store ptr %1, ptr %5, align 8
  call void @llvm.lifetime.start.p0(i64 8, ptr %6) #9
  call void @llvm.lifetime.start.p0(i64 8, ptr %7) #9
  %9 = load ptr, ptr %5, align 8
  %10 = getelementptr inbounds nuw %struct.buf_t, ptr %9, i32 0, i32 2
  %11 = load i32, ptr %10, align 8
  %12 = load ptr, ptr %5, align 8
  %13 = getelementptr inbounds nuw %struct.buf_t, ptr %12, i32 0, i32 3
  %14 = load i32, ptr %13, align 4
  %15 = sub i32 %11, %14
  %16 = zext i32 %15 to i64
  %17 = icmp ult i64 %16, 8
  br i1 %17, label %18, label %19

18:                                               ; preds = %2
  store i32 -1, ptr %3, align 4
  store i32 1, ptr %8, align 4
  br label %39

19:                                               ; preds = %2
  %20 = load ptr, ptr %5, align 8
  %21 = getelementptr inbounds nuw %struct.buf_t, ptr %20, i32 0, i32 1
  %22 = load ptr, ptr %21, align 8
  %23 = load ptr, ptr %5, align 8
  %24 = getelementptr inbounds nuw %struct.buf_t, ptr %23, i32 0, i32 3
  %25 = load i32, ptr %24, align 4
  %26 = zext i32 %25 to i64
  %27 = getelementptr inbounds nuw i8, ptr %22, i64 %26
  call void @llvm.memcpy.p0.p0.i64(ptr align 8 %6, ptr align 1 %27, i64 8, i1 false)
  %28 = load ptr, ptr %5, align 8
  %29 = getelementptr inbounds nuw %struct.buf_t, ptr %28, i32 0, i32 3
  %30 = load i32, ptr %29, align 4
  %31 = zext i32 %30 to i64
  %32 = add i64 %31, 8
  %33 = trunc i64 %32 to i32
  store i32 %33, ptr %29, align 4
  %34 = load i64, ptr %6, align 8
  %35 = call i64 @llvm.bswap.i64(i64 %34)
  store i64 %35, ptr %7, align 8
  %36 = load double, ptr %7, align 8
  %37 = fdiv double %36, 1.000000e+06
  %38 = load ptr, ptr %4, align 8
  store double %37, ptr %38, align 8
  store i32 0, ptr %3, align 4
  store i32 1, ptr %8, align 4
  br label %39

39:                                               ; preds = %19, %18
  call void @llvm.lifetime.end.p0(i64 8, ptr %7) #9
  call void @llvm.lifetime.end.p0(i64 8, ptr %6) #9
  %40 = load i32, ptr %3, align 4
  ret i32 %40
}